target datalayout = "e-m:e-p270:32:32-p271:32:32-p272:64:64-i64:64-i128:128-f80:128-n8:16:32:64-S128"
target triple = "x86_64-pc-linux-gnu"

; Function Attrs: nounwind sspstrong uwtable
define internal i64 @fun_so_to_gb18030(ptr noundef %0, ptr noundef %1, i64 noundef %2, ptr noundef %3, i64 noundef %4) #0 {
  %6 = alloca ptr, align 8
  %7 = alloca ptr, align 8
  %8 = alloca i64, align 8
  %9 = alloca ptr, align 8
  %10 = alloca i64, align 8
  %11 = alloca i32, align 4
  store ptr %0, ptr %6, align 8, !tbaa !6
  store ptr %1, ptr %7, align 8, !tbaa !10
  store i64 %2, ptr %8, align 8, !tbaa !12
  store ptr %3, ptr %9, align 8, !tbaa !10
  store i64 %4, ptr %10, align 8, !tbaa !12
  call void @llvm.lifetime.start.p0(i64 4, ptr %11) #3
  %12 = load ptr, ptr %7, align 8, !tbaa !10
  %13 = getelementptr inbounds i8, ptr %12, i64 0
  %14 = load i8, ptr %13, align 1, !tbaa !14
  %15 = zext i8 %14 to i32
  %16 = and i32 %15, 7
  %17 = shl i32 %16, 18
  %18 = load ptr, ptr %7, align 8, !tbaa !10
  %19 = getelementptr inbounds i8, ptr %18, i64 1
  %20 = load i8, ptr %19, align 1, !tbaa !14
  %21 = zext i8 %20 to i32
  %22 = and i32 %21, 63
  %23 = shl i32 %22, 12
  %24 = or i32 %17, %23
  %25 = load ptr, ptr %7, align 8, !tbaa !10
  %26 = getelementptr inbounds i8, ptr %25, i64 2
  %27 = load i8, ptr %26, align 1, !tbaa !14
  %28 = zext i8 %27 to i32
  %29 = and i32 %28, 63
  %30 = shl i32 %29, 6
  %31 = or i32 %24, %30
  %32 = load ptr, ptr %7, align 8, !tbaa !10
  %33 = getelementptr inbounds i8, ptr %32, i64 3
  %34 = load i8, ptr %33, align 1, !tbaa !14
  %35 = zext i8 %34 to i32
  %36 = and i32 %35, 63
  %37 = or i32 %31, %36
  store i32 %37, ptr %11, align 4, !tbaa !15
  %38 = load i32, ptr %11, align 4, !tbaa !15
  %39 = sub i32 %38, 65536
  store i32 %39, ptr %11, align 4, !tbaa !15
  %40 = load i32, ptr %11, align 4, !tbaa !15
  %41 = urem i32 %40, 10
  %42 = add i32 48, %41
  %43 = trunc i32 %42 to i8
  %44 = load ptr, ptr %9, align 8, !tbaa !10
  %45 = getelementptr inbounds i8, ptr %44, i64 3
  store i8 %43, ptr %45, align 1, !tbaa !14
  %46 = load i32, ptr %11, align 4, !tbaa !15
  %47 = udiv i32 %46, 10
  store i32 %47, ptr %11, align 4, !tbaa !15
  %48 = load i32, ptr %11, align 4, !tbaa !15
  %49 = urem i32 %48, 126
  %50 = add i32 129, %49
  %51 = trunc i32 %50 to i8
  %52 = load ptr, ptr %9, align 8, !tbaa !10
  %53 = getelementptr inbounds i8, ptr %52, i64 2
  store i8 %51, ptr %53, align 1, !tbaa !14
  %54 = load i32, ptr %11, align 4, !tbaa !15
  %55 = udiv i32 %54, 126
  store i32 %55, ptr %11, align 4, !tbaa !15
  %56 = load i32, ptr %11, align 4, !tbaa !15
  %57 = urem i32 %56, 10
  %58 = add i32 48, %57
  %59 = trunc i32 %58 to i8
  %60 = load ptr, ptr %9, align 8, !tbaa !10
  %61 = getelementptr inbounds i8, ptr %60, i64 1
  store i8 %59, ptr %61, align 1, !tbaa !14
  %62 = load i32, ptr %11, align 4, !tbaa !15
  %63 = udiv i32 %62, 10
  %64 = add i32 144, %63
  %65 = trunc i32 %64 to i8
  %66 = load ptr, ptr %9, align 8, !tbaa !10
  %67 = getelementptr inbounds i8, ptr %66, i64 0
  store i8 %65, ptr %67, align 1, !tbaa !14
  call void @llvm.lifetime.end.p0(i64 4, ptr %11) #3
  ret i64 4
}