; Function Attrs: mustprogress nofree norecurse nosync nounwind sspstrong willreturn memory(argmem: readwrite) uwtable
define internal noundef i64 @fun_so_to_gb18030(ptr readnone captures(none) %0, ptr noundef readonly captures(none) %1, i64 %2, ptr noundef writeonly captures(none) initializes((0, 4)) %3, i64 %4) #2 {
  %6 = load i8, ptr %1, align 1, !tbaa !6
  %7 = and i8 %6, 7
  %8 = zext nneg i8 %7 to i32
  %9 = shl nuw nsw i32 %8, 18
  %10 = getelementptr inbounds nuw i8, ptr %1, i64 1
  %11 = load i8, ptr %10, align 1, !tbaa !6
  %12 = and i8 %11, 63
  %13 = zext nneg i8 %12 to i32
  %14 = shl nuw nsw i32 %13, 12
  %15 = getelementptr inbounds nuw i8, ptr %1, i64 2
  %16 = load i8, ptr %15, align 1, !tbaa !6
  %17 = and i8 %16, 63
  %18 = zext nneg i8 %17 to i32
  %19 = shl nuw nsw i32 %18, 6
  %20 = getelementptr inbounds nuw i8, ptr %1, i64 3
  %21 = load i8, ptr %20, align 1, !tbaa !6
  %22 = and i8 %21, 63
  %23 = zext nneg i8 %22 to i32
  %24 = add nsw i32 %9, -65536
  %25 = add nsw i32 %24, %14
  %26 = or disjoint i32 %25, %23
  %27 = or disjoint i32 %26, %19
  %28 = urem i32 %27, 10
  %29 = trunc nuw nsw i32 %28 to i8
  %30 = or disjoint i8 %29, 48
  %31 = getelementptr inbounds nuw i8, ptr %3, i64 3
  store i8 %30, ptr %31, align 1, !tbaa !6
  %32 = udiv i32 %27, 10
  %33 = urem i32 %32, 126
  %34 = trunc nuw nsw i32 %33 to i8
  %35 = add nuw nsw i8 %34, -127
  %36 = getelementptr inbounds nuw i8, ptr %3, i64 2
  store i8 %35, ptr %36, align 1, !tbaa !6
  %37 = udiv i32 %27, 1260
  %38 = urem i32 %37, 10
  %39 = trunc nuw nsw i32 %38 to i8
  %40 = or disjoint i8 %39, 48
  %41 = getelementptr inbounds nuw i8, ptr %3, i64 1
  store i8 %40, ptr %41, align 1, !tbaa !6
  %42 = udiv i32 %27, 12600
  %43 = trunc i32 %42 to i8
  %44 = add i8 %43, -112
  store i8 %44, ptr %3, align 1, !tbaa !6
  ret i64 4
}